target datalayout = "e-m:e-p270:32:32-p271:32:32-p272:64:64-i64:64-i128:128-f80:128-n8:16:32:64-S128"
target triple = "x86_64-pc-linux-gnu"

%struct.AVFilterContext = type { ptr, ptr, ptr, ptr, ptr, i32, ptr, ptr, i32, ptr, ptr, i32, i32, ptr, ptr, ptr, ptr, i32, ptr, i32, i32 }
%struct.FFFrameSync = type { ptr, ptr, i32, %struct.AVRational, i64, ptr, ptr, i32, i32, i8, i8, ptr, i32, i32, i32, i32 }
%struct.AVRational = type { i32, i32 }

; Function Attrs: nounwind uwtable
define internal i32 @process_frame(ptr noundef %0) #2 {
  %2 = alloca i32, align 4
  %3 = alloca ptr, align 8
  %4 = alloca ptr, align 8
  %5 = alloca ptr, align 8
  %6 = alloca ptr, align 8
  %7 = alloca ptr, align 8
  %8 = alloca ptr, align 8
  %9 = alloca i32, align 4
  %10 = alloca i32, align 4
  store ptr %0, ptr %3, align 8, !tbaa !77
  call void @llvm.lifetime.start.p0(i64 8, ptr %4) #10
  %11 = load ptr, ptr %3, align 8, !tbaa !77
  %12 = getelementptr inbounds nuw %struct.FFFrameSync, ptr %11, i32 0, i32 1
  %13 = load ptr, ptr %12, align 8, !tbaa !79
  store ptr %13, ptr %4, align 8, !tbaa !4
  call void @llvm.lifetime.start.p0(i64 8, ptr %5) #10
  %14 = load ptr, ptr %4, align 8, !tbaa !4
  %15 = getelementptr inbounds nuw %struct.AVFilterContext, ptr %14, i32 0, i32 7
  %16 = load ptr, ptr %15, align 8, !tbaa !37
  %17 = getelementptr inbounds ptr, ptr %16, i64 0
  %18 = load ptr, ptr %17, align 8, !tbaa !38
  store ptr %18, ptr %5, align 8, !tbaa !38
  call void @llvm.lifetime.start.p0(i64 8, ptr %6) #10
  store ptr null, ptr %6, align 8, !tbaa !41
  call void @llvm.lifetime.start.p0(i64 8, ptr %7) #10
  store ptr null, ptr %7, align 8, !tbaa !41
  call void @llvm.lifetime.start.p0(i64 8, ptr %8) #10
  store ptr null, ptr %8, align 8, !tbaa !41
  call void @llvm.lifetime.start.p0(i64 4, ptr %9) #10
  %19 = load ptr, ptr %3, align 8, !tbaa !77
  %20 = call i32 @ff_framesync_dualinput_get(ptr noundef %19, ptr noundef %7, ptr noundef %8)
  store i32 %20, ptr %9, align 4, !tbaa !28
  %21 = load i32, ptr %9, align 4, !tbaa !28
  %22 = icmp slt i32 %21, 0
  br i1 %22, label %23, label %25

23:                                               ; preds = %1
  %24 = load i32, ptr %9, align 4, !tbaa !28
  store i32 %24, ptr %2, align 4
  store i32 1, ptr %10, align 4
  br label %47

25:                                               ; preds = %1
  %26 = load ptr, ptr %4, align 8, !tbaa !4
  %27 = getelementptr inbounds nuw %struct.AVFilterContext, ptr %26, i32 0, i32 17
  %28 = load i32, ptr %27, align 8, !tbaa !43
  %29 = icmp ne i32 %28, 0
  br i1 %29, label %30, label %34

30:                                               ; preds = %25
  %31 = load ptr, ptr %5, align 8, !tbaa !38
  %32 = load ptr, ptr %7, align 8, !tbaa !41
  %33 = call i32 @ff_filter_frame(ptr noundef %31, ptr noundef %32)
  store i32 %33, ptr %2, align 4
  store i32 1, ptr %10, align 4
  br label %47

34:                                               ; preds = %25
  %35 = load ptr, ptr %4, align 8, !tbaa !4
  %36 = load ptr, ptr %7, align 8, !tbaa !41
  %37 = load ptr, ptr %8, align 8, !tbaa !41
  %38 = call i32 @filter_frame(ptr noundef %35, ptr noundef %6, ptr noundef %36, ptr noundef %37)
  store i32 %38, ptr %9, align 4, !tbaa !28
  %39 = load i32, ptr %9, align 4, !tbaa !28
  %40 = icmp slt i32 %39, 0
  br i1 %40, label %41, label %43

41:                                               ; preds = %34
  %42 = load i32, ptr %9, align 4, !tbaa !28
  store i32 %42, ptr %2, align 4
  store i32 1, ptr %10, align 4
  br label %47

43:                                               ; preds = %34
  call void @av_frame_free(ptr noundef %7)
  %44 = load ptr, ptr %5, align 8, !tbaa !38
  %45 = load ptr, ptr %6, align 8, !tbaa !41
  %46 = call i32 @ff_filter_frame(ptr noundef %44, ptr noundef %45)
  store i32 %46, ptr %2, align 4
  store i32 1, ptr %10, align 4
  br label %47

47:                                               ; preds = %43, %41, %30, %23
  call void @llvm.lifetime.end.p0(i64 4, ptr %9) #10
  call void @llvm.lifetime.end.p0(i64 8, ptr %8) #10
  call void @llvm.lifetime.end.p0(i64 8, ptr %7) #10
  call void @llvm.lifetime.end.p0(i64 8, ptr %6) #10
  call void @llvm.lifetime.end.p0(i64 8, ptr %5) #10
  call void @llvm.lifetime.end.p0(i64 8, ptr %4) #10
  %48 = load i32, ptr %2, align 4
  ret i32 %48
}