; Function Attrs: nounwind uwtable
define internal i32 @process_frame(ptr noundef %0) #2 {
  %2 = alloca ptr, align 8
  %3 = alloca ptr, align 8
  %4 = alloca ptr, align 8
  %5 = getelementptr inbounds nuw i8, ptr %0, i64 8
  %6 = load ptr, ptr %5, align 8, !tbaa !70
  %7 = getelementptr inbounds nuw i8, ptr %6, i64 56
  %8 = load ptr, ptr %7, align 8, !tbaa !33
  %9 = load ptr, ptr %8, align 8, !tbaa !34
  call void @llvm.lifetime.start.p0(i64 8, ptr nonnull %2) #9
  call void @llvm.lifetime.start.p0(i64 8, ptr nonnull %3) #9
  store ptr null, ptr %3, align 8, !tbaa !37
  call void @llvm.lifetime.start.p0(i64 8, ptr nonnull %4) #9
  store ptr null, ptr %4, align 8, !tbaa !37
  %10 = call i32 @ff_framesync_dualinput_get(ptr noundef %0, ptr noundef nonnull %3, ptr noundef nonnull %4) #9
  %11 = icmp slt i32 %10, 0
  br i1 %11, label %23, label %12

12:                                               ; preds = %1
  %13 = getelementptr inbounds nuw i8, ptr %6, i64 128
  %14 = load i32, ptr %13, align 8, !tbaa !39
  %.not = icmp eq i32 %14, 0
  %15 = load ptr, ptr %3, align 8, !tbaa !37
  br i1 %.not, label %16, label %.sink.split

16:                                               ; preds = %12
  %17 = load ptr, ptr %4, align 8, !tbaa !37
  %18 = call fastcc i32 @filter_frame(ptr noundef nonnull %6, ptr noundef %2, ptr noundef %15, ptr noundef %17)
  %19 = icmp slt i32 %18, 0
  br i1 %19, label %23, label %20

20:                                               ; preds = %16
  call void @av_frame_free(ptr noundef nonnull %3) #9
  %21 = load ptr, ptr %2, align 8, !tbaa !37
  br label %.sink.split

.sink.split:                                      ; preds = %12, %20
  %.sink = phi ptr [ %21, %20 ], [ %15, %12 ]
  %22 = call i32 @ff_filter_frame(ptr noundef %9, ptr noundef %.sink) #9
  br label %23

23:                                               ; preds = %.sink.split, %16, %1
  %.0 = phi i32 [ %10, %1 ], [ %18, %16 ], [ %22, %.sink.split ]
  call void @llvm.lifetime.end.p0(i64 8, ptr nonnull %4) #9
  call void @llvm.lifetime.end.p0(i64 8, ptr nonnull %3) #9
  call void @llvm.lifetime.end.p0(i64 8, ptr nonnull %2) #9
  ret i32 %.0
}